target datalayout = "e-m:e-p270:32:32-p271:32:32-p272:64:64-i64:64-i128:128-f80:128-n8:16:32:64-S128"
target triple = "x86_64-pc-linux-gnu"

%struct.UToolMemory = type { [64 x i8], i32, i32, i32, i32, ptr, [8 x i8], [1 x i8], [15 x i8] }

@stderr = external global ptr, align 8
@.str.4 = private unnamed_addr constant [27 x i8] c"error: %s - out of memory\0A\00", align 1

; Function Attrs: mustprogress uwtable
define ptr @utm_open(ptr noundef %0, i32 noundef %1, i32 noundef %2, i32 noundef %3) #1 {
  %5 = alloca ptr, align 8
  %6 = alloca i32, align 4
  %7 = alloca i32, align 4
  %8 = alloca i32, align 4
  %9 = alloca ptr, align 8
  store ptr %0, ptr %5, align 8, !tbaa !44
  store i32 %1, ptr %6, align 4, !tbaa !22
  store i32 %2, ptr %7, align 4, !tbaa !22
  store i32 %3, ptr %8, align 4, !tbaa !22
  call void @llvm.lifetime.start.p0(i64 8, ptr %9) #14
  %10 = load i32, ptr %7, align 4, !tbaa !22
  %11 = load i32, ptr %6, align 4, !tbaa !22
  %12 = icmp slt i32 %10, %11
  br i1 %12, label %13, label %15

13:                                               ; preds = %4
  %14 = load i32, ptr %6, align 4, !tbaa !22
  store i32 %14, ptr %7, align 4, !tbaa !22
  br label %15

15:                                               ; preds = %13, %4
  %16 = load i32, ptr %6, align 4, !tbaa !22
  %17 = load i32, ptr %8, align 4, !tbaa !22
  %18 = mul nsw i32 %16, %17
  %19 = sext i32 %18 to i64
  %20 = add i64 112, %19
  %21 = call noalias ptr @uprv_malloc_77(i64 noundef %20) #18
  store ptr %21, ptr %9, align 8, !tbaa !55
  %22 = load ptr, ptr %9, align 8, !tbaa !55
  %23 = icmp eq ptr %22, null
  br i1 %23, label %24, label %28

24:                                               ; preds = %15
  %25 = load ptr, ptr @stderr, align 8, !tbaa !15
  %26 = load ptr, ptr %5, align 8, !tbaa !44
  %27 = call i32 (ptr, ptr, ...) @fprintf(ptr noundef %25, ptr noundef @.str.4, ptr noundef %26) #14
  call void @exit(i32 noundef 7) #15
  unreachable

28:                                               ; preds = %15
  %29 = load ptr, ptr %9, align 8, !tbaa !55
  %30 = getelementptr inbounds nuw %struct.UToolMemory, ptr %29, i32 0, i32 7
  %31 = getelementptr inbounds [1 x i8], ptr %30, i64 0, i64 0
  %32 = load ptr, ptr %9, align 8, !tbaa !55
  %33 = getelementptr inbounds nuw %struct.UToolMemory, ptr %32, i32 0, i32 5
  store ptr %31, ptr %33, align 16, !tbaa !57
  %34 = load ptr, ptr %9, align 8, !tbaa !55
  %35 = getelementptr inbounds nuw %struct.UToolMemory, ptr %34, i32 0, i32 0
  %36 = getelementptr inbounds [64 x i8], ptr %35, i64 0, i64 0
  %37 = load ptr, ptr %5, align 8, !tbaa !44
  %38 = call ptr @strcpy(ptr noundef %36, ptr noundef %37) #14
  %39 = load i32, ptr %6, align 4, !tbaa !22
  %40 = load ptr, ptr %9, align 8, !tbaa !55
  %41 = getelementptr inbounds nuw %struct.UToolMemory, ptr %40, i32 0, i32 1
  store i32 %39, ptr %41, align 16, !tbaa !59
  %42 = load i32, ptr %7, align 4, !tbaa !22
  %43 = load ptr, ptr %9, align 8, !tbaa !55
  %44 = getelementptr inbounds nuw %struct.UToolMemory, ptr %43, i32 0, i32 2
  store i32 %42, ptr %44, align 4, !tbaa !60
  %45 = load i32, ptr %8, align 4, !tbaa !22
  %46 = load ptr, ptr %9, align 8, !tbaa !55
  %47 = getelementptr inbounds nuw %struct.UToolMemory, ptr %46, i32 0, i32 3
  store i32 %45, ptr %47, align 8, !tbaa !61
  %48 = load ptr, ptr %9, align 8, !tbaa !55
  %49 = getelementptr inbounds nuw %struct.UToolMemory, ptr %48, i32 0, i32 4
  store i32 0, ptr %49, align 4, !tbaa !62
  %50 = load ptr, ptr %9, align 8, !tbaa !55
  call void @llvm.lifetime.end.p0(i64 8, ptr %9) #14
  ret ptr %50
}