; Function Attrs: mustprogress uwtable
define nonnull ptr @utm_open(ptr noundef %0, i32 noundef %1, i32 noundef %2, i32 noundef %3) local_unnamed_addr #8 {
  %5 = mul nsw i32 %3, %1
  %6 = sext i32 %5 to i64
  %7 = add nsw i64 %6, 112
  %8 = tail call noalias ptr @uprv_malloc_77(i64 noundef %7) #28
  %9 = icmp eq ptr %8, null
  br i1 %9, label %10, label %13

10:                                               ; preds = %4
  %11 = load ptr, ptr @stderr, align 8, !tbaa !10
  %12 = tail call i32 (ptr, ptr, ...) @fprintf(ptr noundef %11, ptr noundef nonnull @.str.4, ptr noundef %0) #25
  tail call void @exit(i32 noundef 7) #29
  unreachable

13:                                               ; preds = %4
  %spec.select = tail call i32 @llvm.smax.i32(i32 %2, i32 %1)
  %14 = getelementptr inbounds nuw i8, ptr %8, i64 96
  %15 = getelementptr inbounds nuw i8, ptr %8, i64 80
  store ptr %14, ptr %15, align 16, !tbaa !36
  %16 = tail call ptr @strcpy(ptr noundef nonnull dereferenceable(1) %8, ptr noundef nonnull dereferenceable(1) %0) #23
  %17 = getelementptr inbounds nuw i8, ptr %8, i64 64
  store i32 %1, ptr %17, align 16, !tbaa !38
  %18 = getelementptr inbounds nuw i8, ptr %8, i64 68
  store i32 %spec.select, ptr %18, align 4, !tbaa !39
  %19 = getelementptr inbounds nuw i8, ptr %8, i64 72
  store i32 %3, ptr %19, align 8, !tbaa !40
  %20 = getelementptr inbounds nuw i8, ptr %8, i64 76
  store i32 0, ptr %20, align 4, !tbaa !41
  ret ptr %8
}